target datalayout = "e-m:e-p270:32:32-p271:32:32-p272:64:64-i64:64-i128:128-f80:128-n8:16:32:64-S128"
target triple = "x86_64-pc-linux-gnu"

@.str.70 = private unnamed_addr constant [1 x i8] zeroinitializer, align 1
@.str.71 = private unnamed_addr constant [10 x i8] c"immediate\00", align 1
@.str.72 = private unnamed_addr constant [39 x i8] c"The only allowed value is \22immediate\22.\00", align 1
@GUC_check_errdetail_string = external global ptr, align 8

; Function Attrs: nounwind uwtable
define dso_local zeroext i1 @check_recovery_target(ptr noundef %0, ptr noundef %1, i32 noundef %2) #0 {
  %4 = alloca i1, align 1
  %5 = alloca ptr, align 8
  %6 = alloca ptr, align 8
  %7 = alloca i32, align 4
  store ptr %0, ptr %5, align 8
  store ptr %1, ptr %6, align 8
  store i32 %2, ptr %7, align 4
  %8 = load ptr, ptr %5, align 8
  %9 = load ptr, ptr %8, align 8
  %10 = call i32 @strcmp(ptr noundef %9, ptr noundef @.str.71) #16
  %11 = icmp ne i32 %10, 0
  br i1 %11, label %12, label %21

12:                                               ; preds = %3
  %13 = load ptr, ptr %5, align 8
  %14 = load ptr, ptr %13, align 8
  %15 = call i32 @strcmp(ptr noundef %14, ptr noundef @.str.70) #16
  %16 = icmp ne i32 %15, 0
  br i1 %16, label %17, label %21

17:                                               ; preds = %12
  %18 = call ptr @__errno_location() #17
  %19 = load i32, ptr %18, align 4
  call void @pre_format_elog_string(i32 noundef %19, ptr noundef null)
  %20 = call ptr (ptr, ...) @format_elog_string(ptr noundef @.str.72)
  store ptr %20, ptr @GUC_check_errdetail_string, align 8
  store i1 false, ptr %4, align 1
  br label %22

21:                                               ; preds = %12, %3
  store i1 true, ptr %4, align 1
  br label %22

22:                                               ; preds = %21, %17
  %23 = load i1, ptr %4, align 1
  ret i1 %23
}