; Function Attrs: nounwind uwtable
define dso_local noundef zeroext i1 @check_recovery_target(ptr noundef readonly captures(none) %0, ptr noundef readnone captures(none) %1, i32 noundef %2) local_unnamed_addr #2 {
  %4 = load ptr, ptr %0, align 8
  %5 = tail call i32 @strcmp(ptr noundef nonnull dereferenceable(1) %4, ptr noundef nonnull dereferenceable(10) @.str.71) #26
  %.not = icmp eq i32 %5, 0
  br i1 %.not, label %11, label %6

6:                                                ; preds = %3
  %strcmpload = load i8, ptr %4, align 1
  %.not3 = icmp eq i8 %strcmpload, 0
  br i1 %.not3, label %11, label %7

7:                                                ; preds = %6
  %8 = tail call ptr @__errno_location() #25
  %9 = load i32, ptr %8, align 4
  tail call void @pre_format_elog_string(i32 noundef %9, ptr noundef null) #23
  %10 = tail call ptr (ptr, ...) @format_elog_string(ptr noundef nonnull @.str.72) #23
  store ptr %10, ptr @GUC_check_errdetail_string, align 8
  br label %11

11:                                               ; preds = %3, %6, %7
  %.0 = phi i1 [ false, %7 ], [ true, %6 ], [ true, %3 ]
  ret i1 %.0
}